target datalayout = "e-m:e-p270:32:32-p271:32:32-p272:64:64-i64:64-i128:128-f80:128-n8:16:32:64-S128"
target triple = "x86_64-pc-linux-gnu"

%struct.JSValue = type { %union.JSValueUnion, i64 }
%union.JSValueUnion = type { double }
%struct.JSRefCountHeader = type { i32 }
%struct.JSThreadState = type { %struct.list_head, %struct.list_head, %struct.list_head, %struct.list_head, i32, i32, ptr, ptr }
%struct.list_head = type { ptr, ptr }
%struct.JSOSTimer = type { %struct.list_head, i32, i64, %struct.JSValue }
%struct.timespec = type { i64, i64 }

@.str.106 = private unnamed_addr constant [15 x i8] c"not a function\00", align 1

; Function Attrs: nounwind uwtable
define internal void @__list_add(ptr noundef %0, ptr noundef %1, ptr noundef %2) #0 {
  %4 = alloca ptr, align 8
  %5 = alloca ptr, align 8
  %6 = alloca ptr, align 8
  store ptr %0, ptr %4, align 8
  store ptr %1, ptr %5, align 8
  store ptr %2, ptr %6, align 8
  %7 = load ptr, ptr %4, align 8
  %8 = load ptr, ptr %5, align 8
  %9 = getelementptr inbounds %struct.list_head, ptr %8, i32 0, i32 1
  store ptr %7, ptr %9, align 8
  %10 = load ptr, ptr %5, align 8
  %11 = load ptr, ptr %4, align 8
  %12 = getelementptr inbounds %struct.list_head, ptr %11, i32 0, i32 0
  store ptr %10, ptr %12, align 8
  %13 = load ptr, ptr %6, align 8
  %14 = load ptr, ptr %4, align 8
  %15 = getelementptr inbounds %struct.list_head, ptr %14, i32 0, i32 1
  store ptr %13, ptr %15, align 8
  %16 = load ptr, ptr %4, align 8
  %17 = load ptr, ptr %6, align 8
  %18 = getelementptr inbounds %struct.list_head, ptr %17, i32 0, i32 0
  store ptr %16, ptr %18, align 8
  ret void
}

; Function Attrs: nounwind uwtable
define internal void @list_add_tail(ptr noundef %0, ptr noundef %1) #0 {
  %3 = alloca ptr, align 8
  %4 = alloca ptr, align 8
  store ptr %0, ptr %3, align 8
  store ptr %1, ptr %4, align 8
  %5 = load ptr, ptr %3, align 8
  %6 = load ptr, ptr %4, align 8
  %7 = getelementptr inbounds %struct.list_head, ptr %6, i32 0, i32 0
  %8 = load ptr, ptr %7, align 8
  %9 = load ptr, ptr %4, align 8
  call void @__list_add(ptr noundef %5, ptr noundef %8, ptr noundef %9)
  ret void
}

; Function Attrs: nounwind uwtable
define internal { i64, i64 } @JS_DupValue(ptr noundef %0, i64 %1, i64 %2) #0 {
  %4 = alloca %struct.JSValue, align 8
  %5 = alloca %struct.JSValue, align 8
  %6 = alloca ptr, align 8
  %7 = alloca ptr, align 8
  %8 = getelementptr inbounds { i64, i64 }, ptr %5, i32 0, i32 0
  store i64 %1, ptr %8, align 8
  %9 = getelementptr inbounds { i64, i64 }, ptr %5, i32 0, i32 1
  store i64 %2, ptr %9, align 8
  store ptr %0, ptr %6, align 8
  %10 = getelementptr inbounds %struct.JSValue, ptr %5, i32 0, i32 1
  %11 = load i64, ptr %10, align 8
  %12 = trunc i64 %11 to i32
  %13 = icmp uge i32 %12, -11
  br i1 %13, label %14, label %21

14:                                               ; preds = %3
  %15 = getelementptr inbounds %struct.JSValue, ptr %5, i32 0, i32 0
  %16 = load ptr, ptr %15, align 8
  store ptr %16, ptr %7, align 8
  %17 = load ptr, ptr %7, align 8
  %18 = getelementptr inbounds %struct.JSRefCountHeader, ptr %17, i32 0, i32 0
  %19 = load i32, ptr %18, align 4
  %20 = add i32 %19, 1
  store i32 %20, ptr %18, align 4
  br label %21

21:                                               ; preds = %14, %3
  call void @llvm.memcpy.p0.p0.i64(ptr align 8 %4, ptr align 8 %5, i64 16, i1 false)
  %22 = load { i64, i64 }, ptr %4, align 8
  ret { i64, i64 } %22
}

; Function Attrs: nounwind uwtable
define internal i64 @get_time_ms() #0 {
  %1 = alloca %struct.timespec, align 8
  %2 = call i32 @clock_gettime(i32 noundef 1, ptr noundef %1) #12
  %3 = getelementptr inbounds %struct.timespec, ptr %1, i32 0, i32 0
  %4 = load i64, ptr %3, align 8
  %5 = mul i64 %4, 1000
  %6 = getelementptr inbounds %struct.timespec, ptr %1, i32 0, i32 1
  %7 = load i64, ptr %6, align 8
  %8 = sdiv i64 %7, 1000000
  %9 = add i64 %5, %8
  ret i64 %9
}

; Function Attrs: nounwind uwtable
define internal { i64, i64 } @js_os_setTimeout(ptr noundef %0, i64 %1, i64 %2, i32 noundef %3, ptr noundef %4) #0 {
  %6 = alloca %struct.JSValue, align 8
  %7 = alloca ptr, align 8
  %8 = alloca i32, align 4
  %9 = alloca %struct.JSValue, align 8
  %10 = alloca %struct.JSValue, align 8
  %11 = alloca ptr, align 8
  %12 = alloca i32, align 4
  %13 = alloca ptr, align 8
  %14 = alloca ptr, align 8
  %15 = alloca ptr, align 8
  %16 = alloca i64, align 8
  %17 = alloca %struct.JSValue, align 8
  %18 = alloca ptr, align 8
  %19 = alloca %struct.JSValue, align 8
  %20 = getelementptr inbounds { i64, i64 }, ptr %10, i32 0, i32 0
  store i64 %1, ptr %20, align 8
  %21 = getelementptr inbounds { i64, i64 }, ptr %10, i32 0, i32 1
  store i64 %2, ptr %21, align 8
  store ptr %0, ptr %11, align 8
  store i32 %3, ptr %12, align 4
  store ptr %4, ptr %13, align 8
  %22 = load ptr, ptr %11, align 8
  %23 = call ptr @JS_GetRuntime(ptr noundef %22)
  store ptr %23, ptr %14, align 8
  %24 = load ptr, ptr %14, align 8
  %25 = call ptr @JS_GetRuntimeOpaque(ptr noundef %24)
  store ptr %25, ptr %15, align 8
  %26 = load ptr, ptr %13, align 8
  %27 = getelementptr %struct.JSValue, ptr %26, i64 0
  call void @llvm.memcpy.p0.p0.i64(ptr align 8 %17, ptr align 8 %27, i64 16, i1 false)
  %28 = load ptr, ptr %11, align 8
  %29 = getelementptr inbounds { i64, i64 }, ptr %17, i32 0, i32 0
  %30 = load i64, ptr %29, align 8
  %31 = getelementptr inbounds { i64, i64 }, ptr %17, i32 0, i32 1
  %32 = load i64, ptr %31, align 8
  %33 = call i32 @JS_IsFunction(ptr noundef %28, i64 %30, i64 %32)
  %34 = icmp ne i32 %33, 0
  br i1 %34, label %42, label %35

35:                                               ; preds = %5
  %36 = load ptr, ptr %11, align 8
  %37 = call { i64, i64 } (ptr, ptr, ...) @JS_ThrowTypeError(ptr noundef %36, ptr noundef @.str.106)
  %38 = getelementptr inbounds { i64, i64 }, ptr %9, i32 0, i32 0
  %39 = extractvalue { i64, i64 } %37, 0
  store i64 %39, ptr %38, align 8
  %40 = getelementptr inbounds { i64, i64 }, ptr %9, i32 0, i32 1
  %41 = extractvalue { i64, i64 } %37, 1
  store i64 %41, ptr %40, align 8
  br label %114

42:                                               ; preds = %5
  %43 = load ptr, ptr %11, align 8
  %44 = load ptr, ptr %13, align 8
  %45 = getelementptr %struct.JSValue, ptr %44, i64 1
  %46 = getelementptr inbounds { i64, i64 }, ptr %45, i32 0, i32 0
  %47 = load i64, ptr %46, align 8
  %48 = getelementptr inbounds { i64, i64 }, ptr %45, i32 0, i32 1
  %49 = load i64, ptr %48, align 8
  %50 = call i32 @JS_ToInt64(ptr noundef %43, ptr noundef %16, i64 %47, i64 %49)
  %51 = icmp ne i32 %50, 0
  br i1 %51, label %52, label %55

52:                                               ; preds = %42
  %53 = getelementptr inbounds %struct.JSValue, ptr %9, i32 0, i32 0
  store i32 0, ptr %53, align 8
  %54 = getelementptr inbounds %struct.JSValue, ptr %9, i32 0, i32 1
  store i64 6, ptr %54, align 8
  br label %114

55:                                               ; preds = %42
  %56 = load ptr, ptr %11, align 8
  %57 = call ptr @js_mallocz(ptr noundef %56, i64 noundef 48)
  store ptr %57, ptr %18, align 8
  %58 = load ptr, ptr %18, align 8
  %59 = icmp ne ptr %58, null
  br i1 %59, label %63, label %60

60:                                               ; preds = %55
  %61 = getelementptr inbounds %struct.JSValue, ptr %9, i32 0, i32 0
  store i32 0, ptr %61, align 8
  %62 = getelementptr inbounds %struct.JSValue, ptr %9, i32 0, i32 1
  store i64 6, ptr %62, align 8
  br label %114

63:                                               ; preds = %55
  %64 = load ptr, ptr %15, align 8
  %65 = getelementptr inbounds %struct.JSThreadState, ptr %64, i32 0, i32 5
  %66 = load i32, ptr %65, align 4
  %67 = load ptr, ptr %18, align 8
  %68 = getelementptr inbounds %struct.JSOSTimer, ptr %67, i32 0, i32 1
  store i32 %66, ptr %68, align 8
  %69 = load ptr, ptr %15, align 8
  %70 = getelementptr inbounds %struct.JSThreadState, ptr %69, i32 0, i32 5
  %71 = load i32, ptr %70, align 4
  %72 = icmp eq i32 %71, 2147483647
  br i1 %72, label %73, label %76

73:                                               ; preds = %63
  %74 = load ptr, ptr %15, align 8
  %75 = getelementptr inbounds %struct.JSThreadState, ptr %74, i32 0, i32 5
  store i32 1, ptr %75, align 4
  br label %81

76:                                               ; preds = %63
  %77 = load ptr, ptr %15, align 8
  %78 = getelementptr inbounds %struct.JSThreadState, ptr %77, i32 0, i32 5
  %79 = load i32, ptr %78, align 4
  %80 = add i32 %79, 1
  store i32 %80, ptr %78, align 4
  br label %81

81:                                               ; preds = %76, %73
  %82 = call i64 @get_time_ms()
  %83 = load i64, ptr %16, align 8
  %84 = add i64 %82, %83
  %85 = load ptr, ptr %18, align 8
  %86 = getelementptr inbounds %struct.JSOSTimer, ptr %85, i32 0, i32 2
  store i64 %84, ptr %86, align 8
  %87 = load ptr, ptr %18, align 8
  %88 = getelementptr inbounds %struct.JSOSTimer, ptr %87, i32 0, i32 3
  %89 = load ptr, ptr %11, align 8
  %90 = getelementptr inbounds { i64, i64 }, ptr %17, i32 0, i32 0
  %91 = load i64, ptr %90, align 8
  %92 = getelementptr inbounds { i64, i64 }, ptr %17, i32 0, i32 1
  %93 = load i64, ptr %92, align 8
  %94 = call { i64, i64 } @JS_DupValue(ptr noundef %89, i64 %91, i64 %93)
  %95 = getelementptr inbounds { i64, i64 }, ptr %19, i32 0, i32 0
  %96 = extractvalue { i64, i64 } %94, 0
  store i64 %96, ptr %95, align 8
  %97 = getelementptr inbounds { i64, i64 }, ptr %19, i32 0, i32 1
  %98 = extractvalue { i64, i64 } %94, 1
  store i64 %98, ptr %97, align 8
  call void @llvm.memcpy.p0.p0.i64(ptr align 8 %88, ptr align 8 %19, i64 16, i1 false)
  %99 = load ptr, ptr %18, align 8
  %100 = getelementptr inbounds %struct.JSOSTimer, ptr %99, i32 0, i32 0
  %101 = load ptr, ptr %15, align 8
  %102 = getelementptr inbounds %struct.JSThreadState, ptr %101, i32 0, i32 2
  call void @list_add_tail(ptr noundef %100, ptr noundef %102)
  %103 = load ptr, ptr %11, align 8
  %104 = load ptr, ptr %18, align 8
  %105 = getelementptr inbounds %struct.JSOSTimer, ptr %104, i32 0, i32 1
  %106 = load i32, ptr %105, align 8
  store ptr %103, ptr %7, align 8
  store i32 %106, ptr %8, align 4
  %107 = load i32, ptr %8, align 4
  store i32 %107, ptr %6, align 8
  %108 = getelementptr inbounds %struct.JSValue, ptr %6, i32 0, i32 1
  store i64 0, ptr %108, align 8
  %109 = load { i64, i64 }, ptr %6, align 8
  %110 = getelementptr inbounds { i64, i64 }, ptr %9, i32 0, i32 0
  %111 = extractvalue { i64, i64 } %109, 0
  store i64 %111, ptr %110, align 8
  %112 = getelementptr inbounds { i64, i64 }, ptr %9, i32 0, i32 1
  %113 = extractvalue { i64, i64 } %109, 1
  store i64 %113, ptr %112, align 8
  br label %114

114:                                              ; preds = %81, %60, %52, %35
  %115 = load { i64, i64 }, ptr %9, align 8
  ret { i64, i64 } %115
}