; Function Attrs: nounwind uwtable
define internal { i64, i64 } @js_os_setTimeout(ptr noundef %0, i64 %1, i64 %2, i32 %3, ptr nocapture noundef readonly %4) #0 {
  %6 = alloca %struct.timespec, align 8
  %7 = alloca i64, align 8
  %8 = tail call ptr @JS_GetRuntime(ptr noundef %0) #29
  %9 = tail call ptr @JS_GetRuntimeOpaque(ptr noundef %8) #29
  %.sroa.06.0.copyload = load i64, ptr %4, align 8
  %.sroa.3.0..sroa_idx = getelementptr inbounds i8, ptr %4, i64 8
  %.sroa.3.0.copyload = load i64, ptr %.sroa.3.0..sroa_idx, align 8
  %10 = tail call i32 @JS_IsFunction(ptr noundef %0, i64 %.sroa.06.0.copyload, i64 %.sroa.3.0.copyload) #29
  %.not = icmp eq i32 %10, 0
  br i1 %.not, label %11, label %15

11:                                               ; preds = %5
  %12 = tail call { i64, i64 } (ptr, ptr, ...) @JS_ThrowTypeError(ptr noundef %0, ptr noundef nonnull @.str.106) #29
  %13 = extractvalue { i64, i64 } %12, 0
  %.sroa.025.0.extract.trunc = trunc i64 %13 to i32
  %.sroa.5.0.extract.shift = and i64 %13, -4294967296
  %14 = extractvalue { i64, i64 } %12, 1
  br label %51

15:                                               ; preds = %5
  %16 = getelementptr i8, ptr %4, i64 16
  %17 = load i64, ptr %16, align 8
  %18 = getelementptr i8, ptr %4, i64 24
  %19 = load i64, ptr %18, align 8
  %20 = call i32 @JS_ToInt64(ptr noundef %0, ptr noundef nonnull %7, i64 %17, i64 %19) #29
  %.not37 = icmp eq i32 %20, 0
  br i1 %.not37, label %21, label %51

21:                                               ; preds = %15
  %22 = call ptr @js_mallocz(ptr noundef %0, i64 noundef 48) #29
  %.not38 = icmp eq ptr %22, null
  br i1 %.not38, label %51, label %23

23:                                               ; preds = %21
  %24 = getelementptr inbounds i8, ptr %9, i64 68
  %25 = load i32, ptr %24, align 4
  %26 = getelementptr inbounds i8, ptr %22, i64 16
  store i32 %25, ptr %26, align 8
  %27 = icmp eq i32 %25, 2147483647
  %28 = add nsw i32 %25, 1
  %storemerge = select i1 %27, i32 1, i32 %28
  store i32 %storemerge, ptr %24, align 4
  call void @llvm.lifetime.start.p0(i64 16, ptr nonnull %6)
  %29 = call i32 @clock_gettime(i32 noundef 1, ptr noundef nonnull %6) #29
  %30 = load i64, ptr %6, align 8
  %31 = mul i64 %30, 1000
  %32 = getelementptr inbounds i8, ptr %6, i64 8
  %33 = load i64, ptr %32, align 8
  %34 = sdiv i64 %33, 1000000
  %35 = add i64 %34, %31
  call void @llvm.lifetime.end.p0(i64 16, ptr nonnull %6)
  %36 = load i64, ptr %7, align 8
  %37 = add i64 %35, %36
  %38 = getelementptr inbounds i8, ptr %22, i64 24
  store i64 %37, ptr %38, align 8
  %39 = getelementptr inbounds i8, ptr %22, i64 32
  %40 = trunc i64 %.sroa.3.0.copyload to i32
  %41 = icmp ugt i32 %40, -12
  br i1 %41, label %42, label %JS_DupValue.exit

42:                                               ; preds = %23
  %43 = inttoptr i64 %.sroa.06.0.copyload to ptr
  %44 = load i32, ptr %43, align 4
  %45 = add i32 %44, 1
  store i32 %45, ptr %43, align 4
  br label %JS_DupValue.exit

JS_DupValue.exit:                                 ; preds = %23, %42
  store i64 %.sroa.06.0.copyload, ptr %39, align 8
  %.sroa.2.0..sroa_idx = getelementptr inbounds i8, ptr %22, i64 40
  store i64 %.sroa.3.0.copyload, ptr %.sroa.2.0..sroa_idx, align 8
  %46 = getelementptr inbounds i8, ptr %9, i64 32
  %47 = load ptr, ptr %46, align 8
  %48 = getelementptr inbounds i8, ptr %47, i64 8
  store ptr %22, ptr %48, align 8
  store ptr %47, ptr %22, align 8
  %49 = getelementptr inbounds i8, ptr %22, i64 8
  store ptr %46, ptr %49, align 8
  store ptr %22, ptr %46, align 8
  %50 = load i32, ptr %26, align 8
  br label %51

51:                                               ; preds = %21, %15, %JS_DupValue.exit, %11
  %.sroa.025.0 = phi i32 [ %50, %JS_DupValue.exit ], [ %.sroa.025.0.extract.trunc, %11 ], [ 0, %15 ], [ 0, %21 ]
  %.sroa.5.sroa.0.0 = phi i64 [ 0, %JS_DupValue.exit ], [ %.sroa.5.0.extract.shift, %11 ], [ 0, %15 ], [ 0, %21 ]
  %.sroa.5.sroa.3.0 = phi i64 [ 0, %JS_DupValue.exit ], [ %14, %11 ], [ 6, %15 ], [ 6, %21 ]
  %.sroa.025.0.insert.ext = zext i32 %.sroa.025.0 to i64
  %.sroa.025.0.insert.insert = or disjoint i64 %.sroa.5.sroa.0.0, %.sroa.025.0.insert.ext
  %.fca.0.insert = insertvalue { i64, i64 } poison, i64 %.sroa.025.0.insert.insert, 0
  %.fca.1.insert = insertvalue { i64, i64 } %.fca.0.insert, i64 %.sroa.5.sroa.3.0, 1
  ret { i64, i64 } %.fca.1.insert
}